Certificate:
    Data:
        Version: 3 (0x2)
        Serial Number: 1 (0x1)
        Signature Algorithm: sha256WithRSAEncryption
        Issuer: O=a-root certification authority, CN=a-root.int
        Validity
            Not Before: Oct 27 20:49:15 2021 GMT
            Not After : Oct 27 20:49:15 2022 GMT
        Subject: CN=foo
        Subject Public Key Info:
            Public Key Algorithm: rsaEncryption
                RSA Public-Key: (2048 bit)
                Modulus:
                    00:cd:01:f0:e8:9f:e8:82:cf:e1:8c:ee:17:4c:2e:
                    7c:33:e6:37:8b:9e:93:e8:c2:6e:95:42:46:aa:7f:
                    52:6e:25:5d:fe:60:43:b9:d6:b1:b3:71:48:60:77:
                    02:a1:fa:5f:10:38:94:cb:c4:f6:ba:b6:3a:45:ea:
                    80:e9:dd:c2:7a:0b:65:12:3d:71:73:3b:37:3b:9d:
                    5c:c2:cc:14:ba:67:6b:36:66:21:0c:a3:96:03:d9:
                    c1:5c:46:94:c8:68:44:54:5d:26:e8:e2:3a:05:fc:
                    b7:c8:26:7f:53:4b:ca:64:ee:8a:37:72:29:7f:f5:
                    a6:c3:1f:32:11:20:e3:5f:9b:73:56:ca:34:f0:ca:
                    d0:40:65:13:85:51:89:bd:7b:bc:90:97:1b:b8:92:
                    54:01:2e:9e:2d:38:b6:ac:7f:46:c5:dc:56:df:ba:
                    0c:31:6a:1a:ea:f9:8a:19:36:8e:24:69:ed:f3:0e:
                    3a:64:40:35:83:b0:d8:9e:b5:23:e4:63:0a:3c:a8:
                    d7:8f:37:85:43:f4:5a:81:86:19:45:4b:d9:29:fc:
                    c8:77:d3:36:92:8c:41:23:cb:21:41:0e:32:de:43:
                    46:dc:4b:a9:76:8a:25:ad:00:2e:32:6e:b4:c7:82:
                    14:11:40:1b:85:f0:1b:41:40:44:bb:e4:9c:15:d8:
                    59:7d
                Exponent: 65537 (0x10001)
        X509v3 extensions:
            X509v3 Basic Constraints: 
                CA:FALSE
            Netscape Comment: 
                OpenSSL Generated Certificate
            X509v3 Subject Key Identifier: 
                B2:B0:7E:E9:04:09:51:F9:8B:C0:C6:6B:50:96:D6:52:F8:F5:FC:C3
            X509v3 Authority Key Identifier: 
                keyid:49:B3:35:E3:1C:6C:BA:53:65:94:60:51:0E:85:70:69:16:70:51:7B

    Signature Algorithm: sha256WithRSAEncryption
         21:70:1c:62:a6:6a:4e:e0:49:7a:e5:42:fa:4d:95:9f:c9:0b:
         6f:be:cf:0e:29:42:47:66:48:a3:23:fe:94:eb:81:06:54:64:
         f6:fd:2c:96:d8:1d:f6:d6:45:a7:cb:61:9a:16:68:f9:82:83:
         96:a7:89:d1:42:a6:e5:e7:d3:ed:f8:38:74:6e:4a:64:28:8a:
         e8:f1:aa:90:60:4a:bf:d8:04:a8:01:e4:2f:58:0f:1d:a6:d2:
         1b:cd:0a:6a:67:9b:89:99:c8:fa:84:b0:b2:42:5a:ae:c2:d9:
         9f:db:6e:36:b3:18:45:45:5d:9e:13:5e:90:52:6b:c7:bf:86:
         0d:0d:a9:0d:8c:ae:5b:c2:77:e2:b6:6a:69:4f:af:b7:6a:8c:
         66:e8:de:26:7f:0f:9d:71:c9:6e:3f:42:e4:b4:28:8c:fb:83:
         75:1c:3d:de:f0:f8:f6:e6:5d:8e:fd:36:bc:30:3d:13:38:10:
         fd:62:29:55:15:c6:96:94:c9:97:9f:f8:e4:d1:a2:9f:75:3d:
         1e:99:21:8e:03:40:3f:bc:30:71:34:e0:13:87:ec:2f:03:1f:
         56:58:06:b0:c9:ef:c9:ea:9c:d9:6b:ae:c5:72:a9:18:ba:c1:
         8e:41:af:f6:00:c1:a8:39:85:ba:58:03:ca:6c:ce:a1:3c:3d:
         70:8e:22:2d
-----BEGIN CERTIFICATE-----
MIIDQjCCAiqgAwIBAgIBATANBgkqhkiG9w0BAQsFADA+MScwJQYDVQQKDB5hLXJv
b3QgY2VydGlmaWNhdGlvbiBhdXRob3JpdHkxEzARBgNVBAMMCmEtcm9vdC5pbnQw
HhcNMjExMDI3MjA0OTE1WhcNMjIxMDI3MjA0OTE1WjAOMQwwCgYDVQQDDANmb28w
ggEiMA0GCSqGSIb3DQEBAQUAA4IBDwAwggEKAoIBAQDNAfDon+iCz+GM7hdMLnwz
5jeLnpPowm6VQkaqf1JuJV3+YEO51rGzcUhgdwKh+l8QOJTLxPa6tjpF6oDp3cJ6
C2USPXFzOzc7nVzCzBS6Z2s2ZiEMo5YD2cFcRpTIaERUXSbo4joF/LfIJn9TS8pk
7oo3cil/9abDHzIRIONfm3NWyjTwytBAZROFUYm9e7yQlxu4klQBLp4tOLasf0bF
3Fbfugwxahrq+YoZNo4kae3zDjpkQDWDsNietSPkYwo8qNePN4VD9FqBhhlFS9kp
/Mh30zaSjEEjyyFBDjLeQ0bcS6l2iiWtAC4ybrTHghQRQBuF8BtBQES75JwV2Fl9
AgMBAAGjezB5MAkGA1UdEwQCMAAwLAYJYIZIAYb4QgENBB8WHU9wZW5TU0wgR2Vu
ZXJhdGVkIENlcnRpZmljYXRlMB0GA1UdDgQWBBSysH7pBAlR+YvAxmtQltZS+PX8
wzAfBgNVHSMEGDAWgBRJszXjHGy6U2WUYFEOhXBpFnBRezANBgkqhkiG9w0BAQsF
AAOCAQEAIXAcYqZqTuBJeuVC+k2Vn8kLb77PDilCR2ZIoyP+lOuBBlRk9v0sltgd
9tZFp8thmhZo+YKDlqeJ0UKm5efT7fg4dG5KZCiK6PGqkGBKv9gEqAHkL1gPHabS
G80KamebiZnI+oSwskJarsLZn9tuNrMYRUVdnhNekFJrx7+GDQ2pDYyuW8J34rZq
aU+vt2qMZujeJn8PnXHJbj9C5LQojPuDdRw93vD49uZdjv02vDA9EzgQ/WIpVRXG
lpTJl5/45NGin3U9HpkhjgNAP7wwcTTgE4fsLwMfVlgGsMnvyeqc2WuuxXKpGLrB
jkGv9gDBqDmFulgDymzOoTw9cI4iLQ==
-----END CERTIFICATE-----
