Certificate:
    Data:
        Version: 3 (0x2)
        Serial Number: 1 (0x1)
    Signature Algorithm: sha256WithRSAEncryption
        Issuer: C=NZ, O=Michael Clark, OU=Certification Authority, CN=Michael Clark Certification Authority/emailAddress=michael@metaparadigm.com
        Validity
            Not Before: Apr  3 01:45:29 2015 GMT
            Not After : Apr  2 01:45:29 2016 GMT
        Subject: C=NZ, O=Monty Laptop, CN=monty.local/emailAddress=michael@metaparadigm.com
        Subject Public Key Info:
            Public Key Algorithm: rsaEncryption
                Public-Key: (2048 bit)
                Modulus:
                    00:a1:09:22:d6:55:12:e3:5f:18:79:03:18:a3:0f:
                    fa:07:40:35:56:6c:02:f2:92:bc:af:62:18:26:33:
                    4d:db:8d:a1:7b:c9:c5:05:11:85:ed:30:c8:59:2d:
                    61:26:8d:53:38:a7:a6:05:ca:a3:f6:4d:a1:60:72:
                    0a:f7:04:81:92:c1:6b:32:07:4d:4a:6a:d9:5f:a9:
                    3e:7e:e8:66:77:b5:41:ec:28:94:f9:31:da:df:e7:
                    72:d6:cf:db:68:5d:cf:47:fc:89:7d:f9:1f:14:3c:
                    b4:da:45:f4:94:11:2b:8b:6d:b2:e8:24:0e:0f:0c:
                    0b:22:ea:0d:50:d3:3c:b7:1b:15:d0:83:5a:ce:5d:
                    68:29:8a:28:ca:3a:e6:f3:b5:3c:0e:13:4c:2f:01:
                    a1:49:10:0b:bf:6b:47:59:c6:31:ca:90:54:33:d1:
                    84:0d:d6:a6:34:c0:5e:f4:fb:59:f3:2a:e9:87:54:
                    37:d3:f4:6a:c9:cf:0d:17:bd:b8:95:51:cd:68:89:
                    cc:05:2e:68:a6:ee:68:4c:37:02:58:01:c5:bf:dd:
                    b2:0c:00:44:0b:5b:51:d3:70:93:f6:58:77:b2:93:
                    b9:b7:59:fd:fc:40:f1:1a:8a:db:9d:ba:89:ad:4a:
                    fa:b5:b7:b0:a1:3d:8f:26:18:11:14:d7:9a:d8:d5:
                    e3:93
                Exponent: 65537 (0x10001)
        X509v3 extensions:
            X509v3 Basic Constraints: 
                CA:FALSE
            Netscape Comment: 
                OpenSSL Generated Certificate
            X509v3 Subject Key Identifier: 
                66:0E:7A:FA:3E:78:D0:05:68:FC:1B:BB:F4:13:31:64:D5:5D:A8:6C
            X509v3 Authority Key Identifier: 
                keyid:83:6F:BC:98:2B:6C:24:F5:CA:1E:1E:4B:D8:44:B6:24:4A:63:B4:8C

    Signature Algorithm: sha256WithRSAEncryption
         33:87:53:99:cf:6f:7d:bd:d8:f5:93:34:da:d7:48:6e:4b:83:
         bf:cf:75:dd:0d:2e:52:5c:49:c3:6c:ef:a0:ed:f1:7c:4c:13:
         12:3e:c6:e1:e3:8c:29:cb:3b:e9:a1:83:bc:a1:0b:e9:d7:89:
         30:e5:d7:06:53:44:39:e9:0b:8d:f7:39:21:b4:06:f3:1d:e2:
         57:f8:bf:61:25:97:ee:c0:e9:4d:40:71:f4:e3:91:90:3a:85:
         c2:68:7b:bd:2c:3a:d3:6c:52:88:81:35:ae:48:18:ba:8c:64:
         b6:17:66:8d:d7:c2:2f:1f:8a:7a:a5:78:b3:94:5c:da:84:3c:
         36:13:9d:97:54:57:f0:f1:19:93:c1:32:6d:95:34:ea:9d:dd:
         a0:64:4b:b5:36:db:72:f2:48:59:5c:7c:a6:a9:af:84:e4:66:
         11:e5:32:b0:62:8c:7c:7a:0d:2d:17:1f:c1:b5:8b:2c:f7:a3:
         16:da:4e:97:97:0b:75:bc:48:ec:81:66:4d:37:b2:cf:93:22:
         6f:d9:6e:cc:64:c4:98:5d:35:15:58:15:40:42:c2:70:d7:cb:
         5e:e6:d0:43:96:b1:e8:75:30:c1:8a:be:47:b7:82:5b:74:d5:
         94:e2:15:b5:c7:99:0e:00:e5:44:35:c7:6f:9e:07:89:8a:7e:
         36:f3:52:d5
-----BEGIN CERTIFICATE-----
MIID+jCCAuKgAwIBAgIBATANBgkqhkiG9w0BAQsFADCBoDELMAkGA1UEBhMCTlox
FjAUBgNVBAoTDU1pY2hhZWwgQ2xhcmsxIDAeBgNVBAsTF0NlcnRpZmljYXRpb24g
QXV0aG9yaXR5MS4wLAYDVQQDEyVNaWNoYWVsIENsYXJrIENlcnRpZmljYXRpb24g
QXV0aG9yaXR5MScwJQYJKoZIhvcNAQkBFhhtaWNoYWVsQG1ldGFwYXJhZGlnbS5j
b20wHhcNMTUwNDAzMDE0NTI5WhcNMTYwNDAyMDE0NTI5WjBjMQswCQYDVQQGEwJO
WjEVMBMGA1UECgwMTW9udHkgTGFwdG9wMRQwEgYDVQQDDAttb250eS5sb2NhbDEn
MCUGCSqGSIb3DQEJARYYbWljaGFlbEBtZXRhcGFyYWRpZ20uY29tMIIBIjANBgkq
hkiG9w0BAQEFAAOCAQ8AMIIBCgKCAQEAoQki1lUS418YeQMYow/6B0A1VmwC8pK8
r2IYJjNN242he8nFBRGF7TDIWS1hJo1TOKemBcqj9k2hYHIK9wSBksFrMgdNSmrZ
X6k+fuhmd7VB7CiU+THa3+dy1s/baF3PR/yJffkfFDy02kX0lBEri22y6CQODwwL
IuoNUNM8txsV0INazl1oKYooyjrm87U8DhNMLwGhSRALv2tHWcYxypBUM9GEDdam
NMBe9PtZ8yrph1Q30/Rqyc8NF724lVHNaInMBS5opu5oTDcCWAHFv92yDABEC1tR
03CT9lh3spO5t1n9/EDxGorbnbqJrUr6tbewoT2PJhgRFNea2NXjkwIDAQABo3sw
eTAJBgNVHRMEAjAAMCwGCWCGSAGG+EIBDQQfFh1PcGVuU1NMIEdlbmVyYXRlZCBD
ZXJ0aWZpY2F0ZTAdBgNVHQ4EFgQUZg56+j540AVo/Bu79BMxZNVdqGwwHwYDVR0j
BBgwFoAUg2+8mCtsJPXKHh5L2ES2JEpjtIwwDQYJKoZIhvcNAQELBQADggEBADOH
U5nPb3292PWTNNrXSG5Lg7/Pdd0NLlJcScNs76Dt8XxMExI+xuHjjCnLO+mhg7yh
C+nXiTDl1wZTRDnpC433OSG0BvMd4lf4v2Ell+7A6U1AcfTjkZA6hcJoe70sOtNs
UoiBNa5IGLqMZLYXZo3Xwi8finqleLOUXNqEPDYTnZdUV/DxGZPBMm2VNOqd3aBk
S7U223LySFlcfKapr4TkZhHlMrBijHx6DS0XH8G1iyz3oxbaTpeXC3W8SOyBZk03
ss+TIm/ZbsxkxJhdNRVYFUBCwnDXy17m0EOWseh1MMGKvke3glt01ZTiFbXHmQ4A
5UQ1x2+eB4mKfjbzUtU=
-----END CERTIFICATE-----
